target datalayout = "e-m:e-p270:32:32-p271:32:32-p272:64:64-i64:64-i128:128-f80:128-n8:16:32:64-S128"
target triple = "x86_64-pc-linux-gnu"

%struct.buftag = type { i32, i32, i32, i32, i32 }
%struct.LWLock = type { i16, %struct.pg_atomic_uint32, %struct.proclist_head }
%struct.pg_atomic_uint32 = type { i32 }
%struct.proclist_head = type { i32, i32 }
%struct.BufferDesc = type { %struct.buftag, i32, %struct.pg_atomic_uint32, i32, i32, %struct.LWLock }
%union.BufferDescPadded = type { %struct.BufferDesc, [12 x i8] }
%struct.SpinDelayStatus = type { i32, i32, i32, ptr, i32, ptr }

@.str.3 = private unnamed_addr constant [9 x i8] c"bufmgr.c\00", align 1
@MyProcNumber = external global i32, align 4
@PinCountWaitBuf = internal global ptr null, align 8
@.str.11 = private unnamed_addr constant [52 x i8] c"multiple backends attempting to wait for pincount 1\00", align 1
@__func__.LockBufferForCleanup = private unnamed_addr constant [21 x i8] c"LockBufferForCleanup\00", align 1
@standbyState = external global i32, align 4
@.str.12 = private unnamed_addr constant [8 x i8] c"waiting\00", align 1
@DeadlockTimeout = external global i32, align 4
@log_recovery_conflict_waits = external global i8, align 1
@__func__.LockBufHdr = private unnamed_addr constant [11 x i8] c"LockBufHdr\00", align 1
@BufferDescriptors = external global ptr, align 8

; Function Attrs: inlinehint nounwind uwtable
define internal void @pg_atomic_write_u32_impl(ptr noundef %0, i32 noundef %1) #3 {
  %3 = alloca ptr, align 8
  %4 = alloca i32, align 4
  store ptr %0, ptr %3, align 8
  store i32 %1, ptr %4, align 4
  %5 = load i32, ptr %4, align 4
  %6 = load ptr, ptr %3, align 8
  %7 = getelementptr inbounds nuw %struct.pg_atomic_uint32, ptr %6, i32 0, i32 0
  store volatile i32 %5, ptr %7, align 4
  ret void
}

; Function Attrs: inlinehint nounwind uwtable
define internal i32 @pg_atomic_fetch_or_u32_impl(ptr noundef %0, i32 noundef %1) #3 {
  %3 = alloca ptr, align 8
  %4 = alloca i32, align 4
  store ptr %0, ptr %3, align 8
  store i32 %1, ptr %4, align 4
  %5 = load ptr, ptr %3, align 8
  %6 = getelementptr inbounds nuw %struct.pg_atomic_uint32, ptr %5, i32 0, i32 0
  %7 = load i32, ptr %4, align 4
  %8 = atomicrmw or ptr %6, i32 %7 seq_cst, align 4
  ret i32 %8
}

; Function Attrs: inlinehint nounwind uwtable
define internal void @pg_atomic_write_u32(ptr noundef %0, i32 noundef %1) #3 {
  %3 = alloca ptr, align 8
  %4 = alloca i32, align 4
  store ptr %0, ptr %3, align 8
  store i32 %1, ptr %4, align 4
  %5 = load ptr, ptr %3, align 8
  %6 = load i32, ptr %4, align 4
  call void @pg_atomic_write_u32_impl(ptr noundef %5, i32 noundef %6)
  ret void
}

; Function Attrs: inlinehint nounwind uwtable
define internal i32 @pg_atomic_fetch_or_u32(ptr noundef %0, i32 noundef %1) #3 {
  %3 = alloca ptr, align 8
  %4 = alloca i32, align 4
  store ptr %0, ptr %3, align 8
  store i32 %1, ptr %4, align 4
  %5 = load ptr, ptr %3, align 8
  %6 = load i32, ptr %4, align 4
  %7 = call i32 @pg_atomic_fetch_or_u32_impl(ptr noundef %5, i32 noundef %6)
  ret i32 %7
}

; Function Attrs: inlinehint nounwind uwtable
define internal void @init_spin_delay(ptr noundef %0, ptr noundef %1, i32 noundef %2, ptr noundef %3) #3 {
  %5 = alloca ptr, align 8
  %6 = alloca ptr, align 8
  %7 = alloca i32, align 4
  %8 = alloca ptr, align 8
  store ptr %0, ptr %5, align 8
  store ptr %1, ptr %6, align 8
  store i32 %2, ptr %7, align 4
  store ptr %3, ptr %8, align 8
  %9 = load ptr, ptr %5, align 8
  %10 = getelementptr inbounds nuw %struct.SpinDelayStatus, ptr %9, i32 0, i32 0
  store i32 0, ptr %10, align 8
  %11 = load ptr, ptr %5, align 8
  %12 = getelementptr inbounds nuw %struct.SpinDelayStatus, ptr %11, i32 0, i32 1
  store i32 0, ptr %12, align 4
  %13 = load ptr, ptr %5, align 8
  %14 = getelementptr inbounds nuw %struct.SpinDelayStatus, ptr %13, i32 0, i32 2
  store i32 0, ptr %14, align 8
  %15 = load ptr, ptr %6, align 8
  %16 = load ptr, ptr %5, align 8
  %17 = getelementptr inbounds nuw %struct.SpinDelayStatus, ptr %16, i32 0, i32 3
  store ptr %15, ptr %17, align 8
  %18 = load i32, ptr %7, align 4
  %19 = load ptr, ptr %5, align 8
  %20 = getelementptr inbounds nuw %struct.SpinDelayStatus, ptr %19, i32 0, i32 4
  store i32 %18, ptr %20, align 8
  %21 = load ptr, ptr %8, align 8
  %22 = load ptr, ptr %5, align 8
  %23 = getelementptr inbounds nuw %struct.SpinDelayStatus, ptr %22, i32 0, i32 5
  store ptr %21, ptr %23, align 8
  ret void
}

; Function Attrs: inlinehint nounwind uwtable
define internal void @UnlockBufHdr(ptr noundef %0, i32 noundef %1) #3 {
  %3 = alloca ptr, align 8
  %4 = alloca i32, align 4
  store ptr %0, ptr %3, align 8
  store i32 %1, ptr %4, align 4
  call void asm sideeffect "", "~{memory},~{dirflag},~{fpsr},~{flags}"() #10, !srcloc !8
  %5 = load ptr, ptr %3, align 8
  %6 = getelementptr inbounds nuw %struct.BufferDesc, ptr %5, i32 0, i32 2
  %7 = load i32, ptr %4, align 4
  %8 = and i32 %7, -4194305
  call void @pg_atomic_write_u32(ptr noundef %6, i32 noundef %8)
  ret void
}

; Function Attrs: nounwind uwtable
define dso_local i32 @LockBufHdr(ptr noundef %0) #0 {
  %2 = alloca ptr, align 8
  %3 = alloca %struct.SpinDelayStatus, align 8
  %4 = alloca i32, align 4
  store ptr %0, ptr %2, align 8
  call void @llvm.lifetime.start.p0(i64 40, ptr %3) #10
  call void @llvm.lifetime.start.p0(i64 4, ptr %4) #10
  call void @init_spin_delay(ptr noundef %3, ptr noundef @.str.3, i32 noundef 5707, ptr noundef @__func__.LockBufHdr)
  br label %5

5:                                                ; preds = %14, %1
  br label %6

6:                                                ; preds = %5
  %7 = load ptr, ptr %2, align 8
  %8 = getelementptr inbounds nuw %struct.BufferDesc, ptr %7, i32 0, i32 2
  %9 = call i32 @pg_atomic_fetch_or_u32(ptr noundef %8, i32 noundef 4194304)
  store i32 %9, ptr %4, align 4
  %10 = load i32, ptr %4, align 4
  %11 = and i32 %10, 4194304
  %12 = icmp ne i32 %11, 0
  br i1 %12, label %14, label %13

13:                                               ; preds = %6
  br label %15

14:                                               ; preds = %6
  call void @perform_spin_delay(ptr noundef %3)
  br label %5

15:                                               ; preds = %13
  call void @finish_spin_delay(ptr noundef %3)
  %16 = load i32, ptr %4, align 4
  %17 = or i32 %16, 4194304
  call void @llvm.lifetime.end.p0(i64 4, ptr %4) #10
  call void @llvm.lifetime.end.p0(i64 40, ptr %3) #10
  ret i32 %17
}

; Function Attrs: inlinehint nounwind uwtable
define internal ptr @GetBufferDescriptor(i32 noundef %0) #3 {
  %2 = alloca i32, align 4
  store i32 %0, ptr %2, align 4
  %3 = load ptr, ptr @BufferDescriptors, align 8
  %4 = load i32, ptr %2, align 4
  %5 = zext i32 %4 to i64
  %6 = getelementptr inbounds nuw %union.BufferDescPadded, ptr %3, i64 %5
  ret ptr %6
}

; Function Attrs: nounwind uwtable
define dso_local void @LockBufferForCleanup(i32 noundef %0) #0 {
  %2 = alloca i32, align 4
  %3 = alloca ptr, align 8
  %4 = alloca i64, align 8
  %5 = alloca i8, align 1
  %6 = alloca i8, align 1
  %7 = alloca i32, align 4
  %8 = alloca i32, align 4
  %9 = alloca i64, align 8
  store i32 %0, ptr %2, align 4
  call void @llvm.lifetime.start.p0(i64 8, ptr %3) #10
  call void @llvm.lifetime.start.p0(i64 8, ptr %4) #10
  store i64 0, ptr %4, align 8
  call void @llvm.lifetime.start.p0(i64 1, ptr %5) #10
  store i8 0, ptr %5, align 1
  call void @llvm.lifetime.start.p0(i64 1, ptr %6) #10
  store i8 0, ptr %6, align 1
  %10 = load i32, ptr %2, align 4
  call void @CheckBufferIsPinnedOnce(i32 noundef %10)
  %11 = load i32, ptr %2, align 4
  %12 = icmp slt i32 %11, 0
  br i1 %12, label %13, label %14

13:                                               ; preds = %1
  store i32 1, ptr %7, align 4
  br label %121

14:                                               ; preds = %1
  %15 = load i32, ptr %2, align 4
  %16 = sub i32 %15, 1
  %17 = call ptr @GetBufferDescriptor(i32 noundef %16)
  store ptr %17, ptr %3, align 8
  br label %18

18:                                               ; preds = %120, %14
  call void @llvm.lifetime.start.p0(i64 4, ptr %8) #10
  %19 = load i32, ptr %2, align 4
  call void @LockBuffer(i32 noundef %19, i32 noundef 2)
  %20 = load ptr, ptr %3, align 8
  %21 = call i32 @LockBufHdr(ptr noundef %20)
  store i32 %21, ptr %8, align 4
  %22 = load i32, ptr %8, align 4
  %23 = and i32 %22, 262143
  %24 = icmp eq i32 %23, 1
  br i1 %24, label %25, label %38

25:                                               ; preds = %18
  %26 = load ptr, ptr %3, align 8
  %27 = load i32, ptr %8, align 4
  call void @UnlockBufHdr(ptr noundef %26, i32 noundef %27)
  %28 = load i8, ptr %6, align 1, !range !4, !noundef !5
  %29 = trunc i8 %28 to i1
  br i1 %29, label %30, label %33

30:                                               ; preds = %25
  %31 = load i64, ptr %4, align 8
  %32 = call i64 @GetCurrentTimestamp()
  call void @LogRecoveryConflict(i32 noundef 12, i64 noundef %31, i64 noundef %32, ptr noundef null, i1 noundef zeroext false)
  br label %33

33:                                               ; preds = %30, %25
  %34 = load i8, ptr %5, align 1, !range !4, !noundef !5
  %35 = trunc i8 %34 to i1
  br i1 %35, label %36, label %37

36:                                               ; preds = %33
  call void @set_ps_display_remove_suffix()
  store i8 0, ptr %5, align 1
  br label %37

37:                                               ; preds = %36, %33
  store i32 1, ptr %7, align 4
  br label %118

38:                                               ; preds = %18
  %39 = load i32, ptr %8, align 4
  %40 = and i32 %39, 536870912
  %41 = icmp ne i32 %40, 0
  br i1 %41, label %42, label %56

42:                                               ; preds = %38
  %43 = load ptr, ptr %3, align 8
  %44 = load i32, ptr %8, align 4
  call void @UnlockBufHdr(ptr noundef %43, i32 noundef %44)
  %45 = load i32, ptr %2, align 4
  call void @LockBuffer(i32 noundef %45, i32 noundef 0)
  br label %46

46:                                               ; preds = %42
  br i1 true, label %47, label %49

47:                                               ; preds = %46
  %48 = call zeroext i1 @errstart_cold(i32 noundef 21, ptr noundef null) #11
  br i1 %48, label %51, label %53

49:                                               ; preds = %46
  %50 = call zeroext i1 @errstart(i32 noundef 21, ptr noundef null)
  br i1 %50, label %51, label %53

51:                                               ; preds = %49, %47
  %52 = call i32 (ptr, ...) @errmsg_internal(ptr noundef @.str.11)
  call void @errfinish(ptr noundef @.str.3, i32 noundef 5232, ptr noundef @__func__.LockBufferForCleanup)
  br label %53

53:                                               ; preds = %51, %49, %47
  unreachable

54:                                               ; No predecessors!
  br label %55

55:                                               ; preds = %54
  br label %56

56:                                               ; preds = %55, %38
  %57 = load i32, ptr @MyProcNumber, align 4
  %58 = load ptr, ptr %3, align 8
  %59 = getelementptr inbounds nuw %struct.BufferDesc, ptr %58, i32 0, i32 3
  store i32 %57, ptr %59, align 4
  %60 = load ptr, ptr %3, align 8
  store ptr %60, ptr @PinCountWaitBuf, align 8
  %61 = load i32, ptr %8, align 4
  %62 = or i32 %61, 536870912
  store i32 %62, ptr %8, align 4
  %63 = load ptr, ptr %3, align 8
  %64 = load i32, ptr %8, align 4
  call void @UnlockBufHdr(ptr noundef %63, i32 noundef %64)
  %65 = load i32, ptr %2, align 4
  call void @LockBuffer(i32 noundef %65, i32 noundef 0)
  %66 = load i32, ptr @standbyState, align 4
  %67 = icmp uge i32 %66, 2
  br i1 %67, label %68, label %99

68:                                               ; preds = %56
  %69 = load i8, ptr %5, align 1, !range !4, !noundef !5
  %70 = trunc i8 %69 to i1
  br i1 %70, label %72, label %71

71:                                               ; preds = %68
  call void @set_ps_display_suffix(ptr noundef @.str.12)
  store i8 1, ptr %5, align 1
  br label %72

72:                                               ; preds = %71, %68
  %73 = load i64, ptr %4, align 8
  %74 = icmp ne i64 %73, 0
  br i1 %74, label %75, label %88

75:                                               ; preds = %72
  %76 = load i8, ptr %6, align 1, !range !4, !noundef !5
  %77 = trunc i8 %76 to i1
  br i1 %77, label %88, label %78

78:                                               ; preds = %75
  call void @llvm.lifetime.start.p0(i64 8, ptr %9) #10
  %79 = call i64 @GetCurrentTimestamp()
  store i64 %79, ptr %9, align 8
  %80 = load i64, ptr %4, align 8
  %81 = load i64, ptr %9, align 8
  %82 = load i32, ptr @DeadlockTimeout, align 4
  %83 = call zeroext i1 @TimestampDifferenceExceeds(i64 noundef %80, i64 noundef %81, i32 noundef %82)
  br i1 %83, label %84, label %87

84:                                               ; preds = %78
  %85 = load i64, ptr %4, align 8
  %86 = load i64, ptr %9, align 8
  call void @LogRecoveryConflict(i32 noundef 12, i64 noundef %85, i64 noundef %86, ptr noundef null, i1 noundef zeroext true)
  store i8 1, ptr %6, align 1
  br label %87

87:                                               ; preds = %84, %78
  call void @llvm.lifetime.end.p0(i64 8, ptr %9) #10
  br label %88

88:                                               ; preds = %87, %75, %72
  %89 = load i8, ptr @log_recovery_conflict_waits, align 1, !range !4, !noundef !5
  %90 = trunc i8 %89 to i1
  br i1 %90, label %91, label %96

91:                                               ; preds = %88
  %92 = load i64, ptr %4, align 8
  %93 = icmp eq i64 %92, 0
  br i1 %93, label %94, label %96

94:                                               ; preds = %91
  %95 = call i64 @GetCurrentTimestamp()
  store i64 %95, ptr %4, align 8
  br label %96

96:                                               ; preds = %94, %91, %88
  %97 = load i32, ptr %2, align 4
  %98 = sub i32 %97, 1
  call void @SetStartupBufferPinWaitBufId(i32 noundef %98)
  call void @ResolveRecoveryConflictWithBufferPin()
  call void @SetStartupBufferPinWaitBufId(i32 noundef -1)
  br label %100

99:                                               ; preds = %56
  call void @ProcWaitForSignal(i32 noundef 67108864)
  br label %100

100:                                              ; preds = %99, %96
  %101 = load ptr, ptr %3, align 8
  %102 = call i32 @LockBufHdr(ptr noundef %101)
  store i32 %102, ptr %8, align 4
  %103 = load i32, ptr %8, align 4
  %104 = and i32 %103, 536870912
  %105 = icmp ne i32 %104, 0
  br i1 %105, label %106, label %115

106:                                              ; preds = %100
  %107 = load ptr, ptr %3, align 8
  %108 = getelementptr inbounds nuw %struct.BufferDesc, ptr %107, i32 0, i32 3
  %109 = load i32, ptr %108, align 4
  %110 = load i32, ptr @MyProcNumber, align 4
  %111 = icmp eq i32 %109, %110
  br i1 %111, label %112, label %115

112:                                              ; preds = %106
  %113 = load i32, ptr %8, align 4
  %114 = and i32 %113, -536870913
  store i32 %114, ptr %8, align 4
  br label %115

115:                                              ; preds = %112, %106, %100
  %116 = load ptr, ptr %3, align 8
  %117 = load i32, ptr %8, align 4
  call void @UnlockBufHdr(ptr noundef %116, i32 noundef %117)
  store ptr null, ptr @PinCountWaitBuf, align 8
  store i32 0, ptr %7, align 4
  br label %118

118:                                              ; preds = %115, %37
  call void @llvm.lifetime.end.p0(i64 4, ptr %8) #10
  %119 = load i32, ptr %7, align 4
  switch i32 %119, label %121 [
    i32 0, label %120
  ]

120:                                              ; preds = %118
  br label %18

121:                                              ; preds = %118, %13
  call void @llvm.lifetime.end.p0(i64 1, ptr %6) #10
  call void @llvm.lifetime.end.p0(i64 1, ptr %5) #10
  call void @llvm.lifetime.end.p0(i64 8, ptr %4) #10
  call void @llvm.lifetime.end.p0(i64 8, ptr %3) #10
  ret void
}