; Function Attrs: nounwind uwtable
define dso_local void @LockBufferForCleanup(i32 noundef %0) local_unnamed_addr #0 {
  %2 = alloca %struct.SpinDelayStatus, align 8
  %3 = alloca %struct.SpinDelayStatus, align 8
  tail call void @CheckBufferIsPinnedOnce(i32 noundef %0)
  %4 = icmp slt i32 %0, 0
  br i1 %4, label %.thread62, label %5

5:                                                ; preds = %1
  %6 = add nsw i32 %0, -1
  %7 = load ptr, ptr @BufferDescriptors, align 8
  %8 = zext i32 %6 to i64
  %9 = getelementptr inbounds nuw %union.BufferDescPadded, ptr %7, i64 %8
  %10 = getelementptr inbounds nuw i8, ptr %3, i64 4
  %11 = getelementptr inbounds nuw i8, ptr %3, i64 8
  %12 = getelementptr inbounds nuw i8, ptr %3, i64 16
  %13 = getelementptr inbounds nuw i8, ptr %3, i64 24
  %14 = getelementptr inbounds nuw i8, ptr %3, i64 32
  %15 = getelementptr inbounds nuw i8, ptr %9, i64 24
  %16 = getelementptr inbounds nuw i8, ptr %9, i64 28
  %17 = getelementptr inbounds nuw i8, ptr %2, i64 4
  %18 = getelementptr inbounds nuw i8, ptr %2, i64 8
  %19 = getelementptr inbounds nuw i8, ptr %2, i64 16
  %20 = getelementptr inbounds nuw i8, ptr %2, i64 24
  %21 = getelementptr inbounds nuw i8, ptr %2, i64 32
  br label %LockBuffer.exit

LockBuffer.exit:                                  ; preds = %79, %5
  %22 = phi ptr [ %7, %5 ], [ %.pre, %79 ]
  %.043 = phi i8 [ 0, %5 ], [ %.447, %79 ]
  %.039 = phi i8 [ 0, %5 ], [ %.4, %79 ]
  %.0 = phi i64 [ 0, %5 ], [ %.3, %79 ]
  %23 = getelementptr inbounds nuw %union.BufferDescPadded, ptr %22, i64 %8, i32 0, i32 5
  %24 = call zeroext i1 @LWLockAcquire(ptr noundef nonnull %23, i32 noundef 0) #16
  call void @llvm.lifetime.start.p0(i64 40, ptr nonnull %3) #16
  store i32 0, ptr %3, align 8
  store i32 0, ptr %10, align 4
  store i32 0, ptr %11, align 8
  store ptr @.str.3, ptr %12, align 8
  store i32 5707, ptr %13, align 8
  store ptr @__func__.LockBufHdr, ptr %14, align 8
  %25 = atomicrmw or ptr %15, i32 4194304 seq_cst, align 4
  %26 = and i32 %25, 4194304
  %.not2.i = icmp eq i32 %26, 0
  br i1 %.not2.i, label %LockBufHdr.exit, label %.lr.ph.i

.lr.ph.i:                                         ; preds = %LockBuffer.exit, %.lr.ph.i
  call void @perform_spin_delay(ptr noundef nonnull %3) #16
  %27 = atomicrmw or ptr %15, i32 4194304 seq_cst, align 4
  %28 = and i32 %27, 4194304
  %.not.i = icmp eq i32 %28, 0
  br i1 %.not.i, label %LockBufHdr.exit, label %.lr.ph.i

LockBufHdr.exit:                                  ; preds = %.lr.ph.i, %LockBuffer.exit
  %.lcssa.i = phi i32 [ %25, %LockBuffer.exit ], [ %27, %.lr.ph.i ]
  call void @finish_spin_delay(ptr noundef nonnull %3) #16
  call void @llvm.lifetime.end.p0(i64 40, ptr nonnull %3) #16
  %29 = and i32 %.lcssa.i, 262143
  %.not51 = icmp eq i32 %29, 1
  br i1 %.not51, label %30, label %38

30:                                               ; preds = %LockBufHdr.exit
  call void asm sideeffect "", "~{memory},~{dirflag},~{fpsr},~{flags}"() #16, !srcloc !4
  %31 = and i32 %.lcssa.i, -4456447
  store volatile i32 %31, ptr %15, align 4
  %32 = trunc nuw i8 %.039 to i1
  br i1 %32, label %33, label %35

33:                                               ; preds = %30
  %34 = call i64 @GetCurrentTimestamp() #16
  call void @LogRecoveryConflict(i32 noundef 12, i64 noundef %.0, i64 noundef %34, ptr noundef null, i1 noundef zeroext false) #16
  br label %35

35:                                               ; preds = %33, %30
  %36 = trunc nuw i8 %.043 to i1
  br i1 %36, label %37, label %.thread62

37:                                               ; preds = %35
  call void @set_ps_display_remove_suffix() #16
  br label %.thread62

38:                                               ; preds = %LockBufHdr.exit
  %39 = and i32 %.lcssa.i, 536870912
  %.not = icmp eq i32 %39, 0
  br i1 %.not, label %LockBuffer.exit52, label %40

40:                                               ; preds = %38
  call void asm sideeffect "", "~{memory},~{dirflag},~{fpsr},~{flags}"() #16, !srcloc !4
  %41 = and i32 %.lcssa.i, -4194305
  store volatile i32 %41, ptr %15, align 4
  call void @LockBuffer(i32 noundef %0, i32 noundef 0)
  %42 = call zeroext i1 @errstart_cold(i32 noundef 21, ptr noundef null) #17
  call void @llvm.assume(i1 %42)
  %43 = call i32 (ptr, ...) @errmsg_internal(ptr noundef nonnull @.str.11) #16
  call void @errfinish(ptr noundef nonnull @.str.3, i32 noundef 5232, ptr noundef nonnull @__func__.LockBufferForCleanup) #16
  unreachable

LockBuffer.exit52:                                ; preds = %38
  %44 = load i32, ptr @MyProcNumber, align 4
  store i32 %44, ptr %16, align 4
  store ptr %9, ptr @PinCountWaitBuf, align 8
  call void asm sideeffect "", "~{memory},~{dirflag},~{fpsr},~{flags}"() #16, !srcloc !4
  %45 = and i32 %.lcssa.i, -541065217
  %46 = or disjoint i32 %45, 536870912
  store volatile i32 %46, ptr %15, align 4
  %47 = load ptr, ptr @BufferDescriptors, align 8
  %48 = getelementptr inbounds nuw %union.BufferDescPadded, ptr %47, i64 %8, i32 0, i32 5
  call void @LWLockRelease(ptr noundef nonnull %48) #16
  %49 = load i32, ptr @standbyState, align 4
  %50 = icmp ugt i32 %49, 1
  br i1 %50, label %51, label %67

51:                                               ; preds = %LockBuffer.exit52
  %52 = trunc nuw i8 %.043 to i1
  br i1 %52, label %54, label %53

53:                                               ; preds = %51
  call void @set_ps_display_suffix(ptr noundef nonnull @.str.12) #16
  br label %54

54:                                               ; preds = %53, %51
  %.not49 = icmp eq i64 %.0, 0
  br i1 %.not49, label %62, label %55

55:                                               ; preds = %54
  %56 = trunc nuw i8 %.039 to i1
  br i1 %56, label %.thread, label %57

57:                                               ; preds = %55
  %58 = call i64 @GetCurrentTimestamp() #16
  %59 = load i32, ptr @DeadlockTimeout, align 4
  %60 = call zeroext i1 @TimestampDifferenceExceeds(i64 noundef %.0, i64 noundef %58, i32 noundef %59) #16
  br i1 %60, label %61, label %.thread

61:                                               ; preds = %57
  call void @LogRecoveryConflict(i32 noundef 12, i64 noundef %.0, i64 noundef %58, ptr noundef null, i1 noundef zeroext true) #16
  br label %.thread

62:                                               ; preds = %54
  %63 = load i8, ptr @log_recovery_conflict_waits, align 1, !range !5, !noundef !6
  %64 = trunc nuw i8 %63 to i1
  br i1 %64, label %65, label %.thread

65:                                               ; preds = %62
  %66 = call i64 @GetCurrentTimestamp() #16
  br label %.thread

.thread:                                          ; preds = %55, %61, %57, %65, %62
  %.24160 = phi i8 [ %.039, %65 ], [ %.039, %62 ], [ 0, %57 ], [ 1, %61 ], [ 1, %55 ]
  %.2 = phi i64 [ %66, %65 ], [ 0, %62 ], [ %.0, %57 ], [ %.0, %61 ], [ %.0, %55 ]
  call void @SetStartupBufferPinWaitBufId(i32 noundef %6) #16
  call void @ResolveRecoveryConflictWithBufferPin() #16
  call void @SetStartupBufferPinWaitBufId(i32 noundef -1) #16
  br label %68

67:                                               ; preds = %LockBuffer.exit52
  call void @ProcWaitForSignal(i32 noundef 67108864) #16
  br label %68

68:                                               ; preds = %67, %.thread
  %.447 = phi i8 [ 1, %.thread ], [ %.043, %67 ]
  %.4 = phi i8 [ %.24160, %.thread ], [ %.039, %67 ]
  %.3 = phi i64 [ %.2, %.thread ], [ %.0, %67 ]
  call void @llvm.lifetime.start.p0(i64 40, ptr nonnull %2) #16
  store i32 0, ptr %2, align 8
  store i32 0, ptr %17, align 4
  store i32 0, ptr %18, align 8
  store ptr @.str.3, ptr %19, align 8
  store i32 5707, ptr %20, align 8
  store ptr @__func__.LockBufHdr, ptr %21, align 8
  %69 = atomicrmw or ptr %15, i32 4194304 seq_cst, align 4
  %70 = and i32 %69, 4194304
  %.not2.i53 = icmp eq i32 %70, 0
  br i1 %.not2.i53, label %LockBufHdr.exit57, label %.lr.ph.i54

.lr.ph.i54:                                       ; preds = %68, %.lr.ph.i54
  call void @perform_spin_delay(ptr noundef nonnull %2) #16
  %71 = atomicrmw or ptr %15, i32 4194304 seq_cst, align 4
  %72 = and i32 %71, 4194304
  %.not.i55 = icmp eq i32 %72, 0
  br i1 %.not.i55, label %LockBufHdr.exit57, label %.lr.ph.i54

LockBufHdr.exit57:                                ; preds = %.lr.ph.i54, %68
  %.lcssa.i56 = phi i32 [ %69, %68 ], [ %71, %.lr.ph.i54 ]
  call void @finish_spin_delay(ptr noundef nonnull %2) #16
  call void @llvm.lifetime.end.p0(i64 40, ptr nonnull %2) #16
  %73 = and i32 %.lcssa.i56, 536870912
  %.not50 = icmp eq i32 %73, 0
  br i1 %.not50, label %79, label %74

74:                                               ; preds = %LockBufHdr.exit57
  %75 = load i32, ptr %16, align 4
  %76 = load i32, ptr @MyProcNumber, align 4
  %77 = icmp eq i32 %75, %76
  %78 = and i32 %.lcssa.i56, -536870913
  %spec.select = select i1 %77, i32 %78, i32 %.lcssa.i56
  br label %79

79:                                               ; preds = %LockBufHdr.exit57, %74
  %.037 = phi i32 [ %.lcssa.i56, %LockBufHdr.exit57 ], [ %spec.select, %74 ]
  call void asm sideeffect "", "~{memory},~{dirflag},~{fpsr},~{flags}"() #16, !srcloc !4
  %80 = and i32 %.037, -4194305
  store volatile i32 %80, ptr %15, align 4
  store ptr null, ptr @PinCountWaitBuf, align 8
  %.pre = load ptr, ptr @BufferDescriptors, align 8
  br label %LockBuffer.exit

.thread62:                                        ; preds = %37, %35, %1
  ret void
}